Certificate:
    Data:
        Version: 3 (0x2)
        Serial Number:
            41:19:e0:d4:83:56:a8:31:07:00:8b:53:34:70:17:48:fc:e0:b8:71
        Signature Algorithm: sha256WithRSAEncryption
        Issuer: C = ch, O = trustbroker.swiss, OU = demo, CN = idp-mock-signer
        Validity
            Not Before: Apr 18 07:31:38 2024 GMT
            Not After : Apr 16 07:31:38 2034 GMT
        Subject: C = ch, O = trustbroker.swiss, OU = demo, CN = idp-mock-signer
        Subject Public Key Info:
            Public Key Algorithm: rsaEncryption
                Public-Key: (2048 bit)
                Modulus:
                    00:91:40:cd:92:fe:58:cd:26:68:06:1a:bc:d2:dd:
                    4f:a8:8f:ef:33:07:ce:e8:cd:64:53:0d:76:e5:9a:
                    46:ee:09:9b:b5:a5:15:b0:71:e1:6e:f4:d3:86:96:
                    97:b0:f1:2c:66:e6:1d:da:4e:ca:89:45:2a:39:a4:
                    3c:2f:5b:f3:f8:8c:e9:6f:8a:f3:53:c8:3f:a7:5c:
                    fc:08:9c:b0:29:32:2a:f3:81:fa:ef:db:d1:0f:6e:
                    c4:12:4a:76:78:7f:dc:d5:c3:de:99:4b:f6:ea:06:
                    00:29:79:12:ef:6c:cf:18:77:27:d1:b4:c4:46:60:
                    cb:e9:e9:87:de:49:19:dd:cc:d2:b8:e2:07:5b:40:
                    20:b4:2b:e7:c7:90:f4:7a:f7:40:dc:c9:37:c0:e7:
                    f0:a8:f8:22:6e:15:73:ce:68:e7:1f:16:0d:5f:52:
                    96:96:f8:77:00:84:f7:97:0d:2f:c8:08:80:bd:c1:
                    d5:89:21:f6:e4:e1:00:4c:a2:20:b9:82:1e:73:0f:
                    b1:02:be:e9:d2:57:af:8d:76:2f:27:be:fb:6f:aa:
                    aa:eb:48:00:e6:29:0d:1b:b2:f0:b4:e6:16:cd:07:
                    80:41:cb:87:18:ed:c5:80:3a:0f:10:29:d3:1b:fa:
                    f7:0d:ec:e1:1a:c0:c9:e7:3d:98:5f:b6:fe:94:e3:
                    11:0b
                Exponent: 65537 (0x10001)
        X509v3 extensions:
            X509v3 Subject Key Identifier: 
                19:B8:0C:D2:82:18:49:94:CB:40:5F:FD:EA:74:12:9E:69:D2:D3:D7
            X509v3 Authority Key Identifier: 
                19:B8:0C:D2:82:18:49:94:CB:40:5F:FD:EA:74:12:9E:69:D2:D3:D7
            X509v3 Basic Constraints: critical
                CA:TRUE
    Signature Algorithm: sha256WithRSAEncryption
    Signature Value:
        15:af:98:5b:58:71:10:f2:51:2b:49:83:50:67:5f:df:9e:6b:
        d8:7c:59:54:10:93:11:b5:67:08:07:b0:16:2e:32:0f:60:e8:
        f5:29:38:0a:4e:fb:20:28:6c:22:70:35:60:63:43:02:c8:ec:
        f1:fa:cb:c5:5e:ca:c1:29:36:63:f4:e7:26:01:28:83:d7:5c:
        d9:0b:fc:9a:d7:35:20:1d:ec:5e:f3:35:58:8c:7f:e7:a5:75:
        99:32:74:ea:0a:16:56:59:12:c9:6a:4b:86:56:df:14:3a:dd:
        e2:cb:ef:73:ea:e0:fd:36:f4:b7:de:5c:e6:5f:ed:f6:3c:df:
        6e:c4:52:6e:45:84:38:01:16:14:44:78:3b:71:c1:c8:ad:a0:
        13:5f:c4:c2:20:2b:48:b0:13:5a:8b:9d:4d:70:03:7e:45:b3:
        78:46:fa:b9:92:b5:bd:d9:b5:27:b5:c6:10:11:52:8a:d2:47:
        43:99:57:b5:d4:db:6e:6b:ea:59:18:8c:2a:81:58:27:98:86:
        1f:a5:b9:c5:bb:f6:5e:2e:74:1f:4a:7e:b7:69:d3:1c:b6:c9:
        91:65:2b:c7:0e:55:14:55:c2:ac:e5:50:fe:61:04:ad:0b:27:
        e6:c3:97:dd:b3:90:c2:ea:9b:25:e5:d0:99:63:5d:8d:aa:de:
        85:43:13:85
-----BEGIN CERTIFICATE-----
MIIDhTCCAm2gAwIBAgIUQRng1INWqDEHAItTNHAXSPzguHEwDQYJKoZIhvcNAQEL
BQAwUjELMAkGA1UEBhMCY2gxGjAYBgNVBAoMEXRydXN0YnJva2VyLnN3aXNzMQ0w
CwYDVQQLDARkZW1vMRgwFgYDVQQDDA9pZHAtbW9jay1zaWduZXIwHhcNMjQwNDE4
MDczMTM4WhcNMzQwNDE2MDczMTM4WjBSMQswCQYDVQQGEwJjaDEaMBgGA1UECgwR
dHJ1c3Ricm9rZXIuc3dpc3MxDTALBgNVBAsMBGRlbW8xGDAWBgNVBAMMD2lkcC1t
b2NrLXNpZ25lcjCCASIwDQYJKoZIhvcNAQEBBQADggEPADCCAQoCggEBAJFAzZL+
WM0maAYavNLdT6iP7zMHzujNZFMNduWaRu4Jm7WlFbBx4W7004aWl7DxLGbmHdpO
yolFKjmkPC9b8/iM6W+K81PIP6dc/AicsCkyKvOB+u/b0Q9uxBJKdnh/3NXD3plL
9uoGACl5Eu9szxh3J9G0xEZgy+nph95JGd3M0rjiB1tAILQr58eQ9Hr3QNzJN8Dn
8Kj4Im4Vc85o5x8WDV9Slpb4dwCE95cNL8gIgL3B1Ykh9uThAEyiILmCHnMPsQK+
6dJXr412Lye++2+qqutIAOYpDRuy8LTmFs0HgEHLhxjtxYA6DxAp0xv69w3s4RrA
yec9mF+2/pTjEQsCAwEAAaNTMFEwHQYDVR0OBBYEFBm4DNKCGEmUy0Bf/ep0Ep5p
0tPXMB8GA1UdIwQYMBaAFBm4DNKCGEmUy0Bf/ep0Ep5p0tPXMA8GA1UdEwEB/wQF
MAMBAf8wDQYJKoZIhvcNAQELBQADggEBABWvmFtYcRDyUStJg1BnX9+ea9h8WVQQ
kxG1ZwgHsBYuMg9g6PUpOApO+yAobCJwNWBjQwLI7PH6y8VeysEpNmP05yYBKIPX
XNkL/JrXNSAd7F7zNViMf+eldZkydOoKFlZZEslqS4ZW3xQ63eLL73Pq4P029Lfe
XOZf7fY8327EUm5FhDgBFhREeDtxwcitoBNfxMIgK0iwE1qLnU1wA35Fs3hG+rmS
tb3ZtSe1xhARUorSR0OZV7XU225r6lkYjCqBWCeYhh+lucW79l4udB9Kfrdp0xy2
yZFlK8cOVRRVwqzlUP5hBK0LJ+bDl92zkMLqmyXl0JljXY2q3oVDE4U=
-----END CERTIFICATE-----
-----BEGIN ENCRYPTED PRIVATE KEY-----
MIIFLTBXBgkqhkiG9w0BBQ0wSjApBgkqhkiG9w0BBQwwHAQIkIDQreP6kIwCAggA
MAwGCCqGSIb3DQIJBQAwHQYJYIZIAWUDBAEqBBAAEHgZ19lp0N8jT3oQ/OvfBIIE
0IxBePQFIwerhf+j4Mfj+4qaH42wSp9QsJ+5TKUNintgef3UASX2gdzip86eNFoC
n0epS0/GK+Jo4nwbTTSXxsIF4uZiWLPXzIAww8q4yMtFucTX0ISHcStGGOct0zVt
ukdHKKegWXOJHEeEKFobVkcWZ7dYCi5UYBZqSRKfu/xo78U3cXIyBD/lQYLAIxDF
tSQIFXdGKPbkbgdQK+bgk05LhAPj+vFn7rPQNScQqt2lNnq4jMNdUhWH8iPFzyza
vVATtgPQkUGU8JMK1zj4uMbdHwcAkQfb2TmbAq1giSVTSHZHwMNSsx6CmvlFF081
4F1OP3kJA8whLjnixf44gLkqjLyuBWTHNC6PzoLO7KW3zWu+v56pejGj8OjBn8Bz
UfhfgrN9WoMpe4kwAA0BpPAmDsOZkFzvgax/pLAHK3pUyyBmYCsMiJGOpi8S9MJA
ojJaEU5zOFvsL2Ij8sSW6yXbVq/+2IhWFAf2ug6E3c6xsx/kUDBx2LqiOtIG3k8x
wqLDzflVN92UggggIOAHt0nqOwFqeKlKZpcHUoTQ3tR0vTV5hvfVk1glFjPIs8Pv
kZY4A11dMAac+ClugSw63ZUzpCOuVOSsmwv7MARoMiwU/ITIX24xP4j3+ODdtgZs
ORwr1YiS1TOfLNqQlYo2A+SvhUdJXiUXeB+ZciSC9ZAk/VyJbvhaKNOFOL/ZSsgw
U4PETtPCw+hcLxJxQnkfHtr8vt2CLa7yadnuEm6chbQ+msensnaiJD1VZsv0Zu60
s4jVUnSIGU1EJeeSewFA/HNfy8oAWUNafsF2gFF1SZMWHD6llaNzrutrBesWXyV0
s2eput+4PNggGFQgr57BuCvvfODi73MfK8TZVTQPtgTtBr779mwN4FoFNzICiaG+
djeDG/TEKGNRmXXZ1B0byGzOfIjBvLK0U/eVAdF3GntRvWqYQLHtA+VA8FRCD5o5
2uek9DkDCOEjxkbkXTGIh3BGxEZsLudrL1lgMsYMOxXMftKPaRwj8DhHPMnBjGLJ
5Y7nfM872blYcMLVDb4TvW4zxP+yV0poP2tmZBdWDN7NJ4LMy4TiML4NfGvBG4YN
4LIvwAtw2Ac4PYJWZknTUSQRr9l/XZ2LUAJbKGFzOjalSZ7KVeo42/P/X8z0c+Hq
F9Cnd1HOp4c84YeD9A0MSkGF/RxDmejUcF4X+T7slZ72urbqUPxF0LfhOHx82tH1
kPjOt8ef2+FnTKMD1f/rFH/yLWHoA15s8Yq4/HmE62Gu+uB+e2D34ddcpuDquciR
QbPxVkH3sRqYJMtXpVG5axsoFUHoJQqfSPsqyRYklBs2Bf/rcuGfugL+Yz8svNQ5
Qg/Fn2566OqIYr/7j68DXgyr7JHwdmHSrIRpTzgA/zb8VO8mleOV31yV038NAq6d
RGjvHqysCzYkiaYzzRlrB9cQlzOagwTSzBZAnzQvonZx46weK1vA9HRoA3HfhQag
yaewKA4EaLoITBiW1JpYTyDUgo7bmsdTr29J3WjBv/eBuniRLBB7oJ8MLegW43oR
yUWozD9tdy/n8EMIQK2KlS6gRWwdeYJikZDpxrO8bk+Kz8VgEfUrNU1AlOACcQwh
YLQ8l1J81/kDQvYO8v7vvOB8paWbL/nK6zFsKDuUBJAo
-----END ENCRYPTED PRIVATE KEY-----
